target datalayout = "e-m:e-p270:32:32-p271:32:32-p272:64:64-i64:64-i128:128-f80:128-n8:16:32:64-S128"
target triple = "x86_64-pc-linux-gnu"

@.str = private unnamed_addr constant [100 x i8] c"generated/home/dtcxzyw/WorkSpace/Projects/compilers/llvm-opt-benchmark/bench/hdf5/hdf5/src/H5Lint.c\00", align 1
@H5E_LINK_g = external global i64, align 8
@H5E_BADVALUE_g = external global i64, align 8
@.str.6 = private unnamed_addr constant [21 x i8] c"can't normalize name\00", align 1
@__func__.H5L__delete = private unnamed_addr constant [12 x i8] c"H5L__delete\00", align 1
@H5E_CANTREMOVE_g = external global i64, align 8
@.str.13 = private unnamed_addr constant [20 x i8] c"can't unlink object\00", align 1

; Function Attrs: nounwind uwtable
define i32 @H5L__delete(ptr noundef %0, ptr noundef %1) #0 {
  %3 = alloca ptr, align 8
  %4 = alloca ptr, align 8
  %5 = alloca ptr, align 8
  %6 = alloca i32, align 4
  %7 = alloca i8, align 1
  store ptr %0, ptr %3, align 8
  store ptr %1, ptr %4, align 8
  store ptr null, ptr %5, align 8
  store i32 0, ptr %6, align 4
  store i8 0, ptr %7, align 1
  %8 = load ptr, ptr %4, align 8
  %9 = call ptr @H5G_normalize(ptr noundef %8)
  store ptr %9, ptr %5, align 8
  %10 = icmp eq ptr %9, null
  br i1 %10, label %11, label %26

11:                                               ; preds = %2
  br label %12

12:                                               ; preds = %11
  br label %13

13:                                               ; preds = %12
  br label %14

14:                                               ; preds = %13
  %15 = load i64, ptr @H5E_LINK_g, align 8
  %16 = load i64, ptr @H5E_BADVALUE_g, align 8
  %17 = call i32 (ptr, ptr, i32, i64, i64, ptr, ...) @H5E_printf_stack(ptr noundef @.str, ptr noundef @__func__.H5L__delete, i32 noundef 1189, i64 noundef %15, i64 noundef %16, ptr noundef @.str.6)
  br label %18

18:                                               ; preds = %14
  store i8 1, ptr %7, align 1
  %19 = load i8, ptr %7, align 1
  %20 = trunc i8 %19 to i1
  %21 = zext i1 %20 to i8
  store i8 %21, ptr %7, align 1
  br label %22

22:                                               ; preds = %18
  br label %23

23:                                               ; preds = %22
  store i32 -1, ptr %6, align 4
  br label %47

24:                                               ; No predecessors!
  br label %25

25:                                               ; preds = %24
  br label %26

26:                                               ; preds = %25, %2
  %27 = load ptr, ptr %3, align 8
  %28 = load ptr, ptr %5, align 8
  %29 = call i32 @H5G_traverse(ptr noundef %27, ptr noundef %28, i32 noundef 7, ptr noundef @H5L__delete_cb, ptr noundef null)
  %30 = icmp slt i32 %29, 0
  br i1 %30, label %31, label %46

31:                                               ; preds = %26
  br label %32

32:                                               ; preds = %31
  br label %33

33:                                               ; preds = %32
  br label %34

34:                                               ; preds = %33
  %35 = load i64, ptr @H5E_LINK_g, align 8
  %36 = load i64, ptr @H5E_CANTREMOVE_g, align 8
  %37 = call i32 (ptr, ptr, i32, i64, i64, ptr, ...) @H5E_printf_stack(ptr noundef @.str, ptr noundef @__func__.H5L__delete, i32 noundef 1194, i64 noundef %35, i64 noundef %36, ptr noundef @.str.13)
  br label %38

38:                                               ; preds = %34
  store i8 1, ptr %7, align 1
  %39 = load i8, ptr %7, align 1
  %40 = trunc i8 %39 to i1
  %41 = zext i1 %40 to i8
  store i8 %41, ptr %7, align 1
  br label %42

42:                                               ; preds = %38
  br label %43

43:                                               ; preds = %42
  store i32 -1, ptr %6, align 4
  br label %47

44:                                               ; No predecessors!
  br label %45

45:                                               ; preds = %44
  br label %46

46:                                               ; preds = %45, %26
  br label %47

47:                                               ; preds = %46, %43, %23
  %48 = load ptr, ptr %5, align 8
  %49 = icmp ne ptr %48, null
  br i1 %49, label %50, label %53

50:                                               ; preds = %47
  %51 = load ptr, ptr %5, align 8
  %52 = call ptr @H5MM_xfree(ptr noundef %51)
  br label %53

53:                                               ; preds = %50, %47
  %54 = load i32, ptr %6, align 4
  ret i32 %54
}