; Function Attrs: nounwind uwtable
define range(i32 -1, 1) i32 @H5L__delete(ptr noundef %0, ptr noundef %1) local_unnamed_addr #0 {
  %3 = tail call ptr @H5G_normalize(ptr noundef %1) #10
  %4 = icmp eq ptr %3, null
  br i1 %4, label %12, label %5

5:                                                ; preds = %2
  %6 = tail call i32 @H5G_traverse(ptr noundef %0, ptr noundef nonnull %3, i32 noundef 7, ptr noundef nonnull @H5L__delete_cb, ptr noundef null) #10
  %7 = icmp slt i32 %6, 0
  br i1 %7, label %8, label %16

8:                                                ; preds = %5
  %9 = load i64, ptr @H5E_LINK_g, align 8
  %10 = load i64, ptr @H5E_CANTREMOVE_g, align 8
  %11 = tail call i32 (ptr, ptr, i32, i64, i64, ptr, ...) @H5E_printf_stack(ptr noundef nonnull @.str, ptr noundef nonnull @__func__.H5L__delete, i32 noundef 1194, i64 noundef %9, i64 noundef %10, ptr noundef nonnull @.str.13) #10
  br label %16

12:                                               ; preds = %2
  %13 = load i64, ptr @H5E_LINK_g, align 8
  %14 = load i64, ptr @H5E_BADVALUE_g, align 8
  %15 = tail call i32 (ptr, ptr, i32, i64, i64, ptr, ...) @H5E_printf_stack(ptr noundef nonnull @.str, ptr noundef nonnull @__func__.H5L__delete, i32 noundef 1189, i64 noundef %13, i64 noundef %14, ptr noundef nonnull @.str.6) #10
  br label %18

16:                                               ; preds = %5, %8
  %.0.ph = phi i32 [ 0, %5 ], [ -1, %8 ]
  %17 = tail call ptr @H5MM_xfree(ptr noundef nonnull %3) #10
  br label %18

18:                                               ; preds = %12, %16
  %.010 = phi i32 [ %.0.ph, %16 ], [ -1, %12 ]
  ret i32 %.010
}